ARM GAS  C:\WINDOWS\TEMP\ccTXKCrY.s 			page 1


   1              		.syntax unified
   2              		.cpu cortex-m4
   3              		.eabi_attribute 27, 1
   4              		.eabi_attribute 28, 1
   5              		.fpu fpv4-sp-d16
   6              		.eabi_attribute 20, 1
   7              		.eabi_attribute 21, 1
   8              		.eabi_attribute 23, 3
   9              		.eabi_attribute 24, 1
  10              		.eabi_attribute 25, 1
  11              		.eabi_attribute 26, 1
  12              		.eabi_attribute 30, 1
  13              		.eabi_attribute 34, 1
  14              		.eabi_attribute 18, 4
  15              		.thumb
  16              		.syntax unified
  17              		.file	"usb_host.c"
  18              		.text
  19              	.Ltext0:
  20              		.cfi_sections	.debug_frame
  21              		.section	.text.USBH_UserProcess,"ax",%progbits
  22              		.align	2
  23              		.thumb
  24              		.thumb_func
  26              	USBH_UserProcess:
  27              	.LFB137:
  28              		.file 1 "Src/usb_host.c"
   1:Src/usb_host.c **** /* USER CODE BEGIN Header */
   2:Src/usb_host.c **** /**
   3:Src/usb_host.c ****   ******************************************************************************
   4:Src/usb_host.c ****   * @file            : usb_host.c
   5:Src/usb_host.c ****   * @version         : v1.0_Cube
   6:Src/usb_host.c ****   * @brief           : This file implements the USB Host
   7:Src/usb_host.c ****   ******************************************************************************
   8:Src/usb_host.c ****   * @attention
   9:Src/usb_host.c ****   *
  10:Src/usb_host.c ****   * <h2><center>&copy; Copyright (c) 2020 STMicroelectronics.
  11:Src/usb_host.c ****   * All rights reserved.</center></h2>
  12:Src/usb_host.c ****   *
  13:Src/usb_host.c ****   * This software component is licensed by ST under Ultimate Liberty license
  14:Src/usb_host.c ****   * SLA0044, the "License"; You may not use this file except in compliance with
  15:Src/usb_host.c ****   * the License. You may obtain a copy of the License at:
  16:Src/usb_host.c ****   *                             www.st.com/SLA0044
  17:Src/usb_host.c ****   *
  18:Src/usb_host.c ****   ******************************************************************************
  19:Src/usb_host.c ****   */
  20:Src/usb_host.c **** /* USER CODE END Header */
  21:Src/usb_host.c **** 
  22:Src/usb_host.c **** /* Includes ------------------------------------------------------------------*/
  23:Src/usb_host.c **** 
  24:Src/usb_host.c **** #include "usb_host.h"
  25:Src/usb_host.c **** #include "usbh_core.h"
  26:Src/usb_host.c **** #include "usbh_cdc.h"
  27:Src/usb_host.c **** 
  28:Src/usb_host.c **** /* USER CODE BEGIN Includes */
  29:Src/usb_host.c **** 
  30:Src/usb_host.c **** /* USER CODE END Includes */
ARM GAS  C:\WINDOWS\TEMP\ccTXKCrY.s 			page 2


  31:Src/usb_host.c **** 
  32:Src/usb_host.c **** /* USER CODE BEGIN PV */
  33:Src/usb_host.c **** /* Private variables ---------------------------------------------------------*/
  34:Src/usb_host.c **** 
  35:Src/usb_host.c **** /* USER CODE END PV */
  36:Src/usb_host.c **** 
  37:Src/usb_host.c **** /* USER CODE BEGIN PFP */
  38:Src/usb_host.c **** /* Private function prototypes -----------------------------------------------*/
  39:Src/usb_host.c **** 
  40:Src/usb_host.c **** /* USER CODE END PFP */
  41:Src/usb_host.c **** 
  42:Src/usb_host.c **** /* USB Host core handle declaration */
  43:Src/usb_host.c **** USBH_HandleTypeDef hUsbHostHS;
  44:Src/usb_host.c **** ApplicationTypeDef Appli_state = APPLICATION_IDLE;
  45:Src/usb_host.c **** 
  46:Src/usb_host.c **** /*
  47:Src/usb_host.c ****  * -- Insert your variables declaration here --
  48:Src/usb_host.c ****  */
  49:Src/usb_host.c **** /* USER CODE BEGIN 0 */
  50:Src/usb_host.c **** 
  51:Src/usb_host.c **** /* USER CODE END 0 */
  52:Src/usb_host.c **** 
  53:Src/usb_host.c **** /*
  54:Src/usb_host.c ****  * user callback declaration
  55:Src/usb_host.c ****  */
  56:Src/usb_host.c **** static void USBH_UserProcess(USBH_HandleTypeDef *phost, uint8_t id);
  57:Src/usb_host.c **** 
  58:Src/usb_host.c **** /*
  59:Src/usb_host.c ****  * -- Insert your external function declaration here --
  60:Src/usb_host.c ****  */
  61:Src/usb_host.c **** /* USER CODE BEGIN 1 */
  62:Src/usb_host.c **** 
  63:Src/usb_host.c **** /* USER CODE END 1 */
  64:Src/usb_host.c **** 
  65:Src/usb_host.c **** /**
  66:Src/usb_host.c ****   * Init USB host library, add supported class and start the library
  67:Src/usb_host.c ****   * @retval None
  68:Src/usb_host.c ****   */
  69:Src/usb_host.c **** void MX_USB_HOST_Init(void)
  70:Src/usb_host.c **** {
  71:Src/usb_host.c ****   /* USER CODE BEGIN USB_HOST_Init_PreTreatment */
  72:Src/usb_host.c ****   
  73:Src/usb_host.c ****   /* USER CODE END USB_HOST_Init_PreTreatment */
  74:Src/usb_host.c ****   
  75:Src/usb_host.c ****   /* Init host Library, add supported class and start the library. */
  76:Src/usb_host.c ****   if (USBH_Init(&hUsbHostHS, USBH_UserProcess, HOST_HS) != USBH_OK)
  77:Src/usb_host.c ****   {
  78:Src/usb_host.c ****     Error_Handler();
  79:Src/usb_host.c ****   }
  80:Src/usb_host.c ****   if (USBH_RegisterClass(&hUsbHostHS, USBH_CDC_CLASS) != USBH_OK)
  81:Src/usb_host.c ****   {
  82:Src/usb_host.c ****     Error_Handler();
  83:Src/usb_host.c ****   }
  84:Src/usb_host.c ****   if (USBH_Start(&hUsbHostHS) != USBH_OK)
  85:Src/usb_host.c ****   {
  86:Src/usb_host.c ****     Error_Handler();
  87:Src/usb_host.c ****   }
ARM GAS  C:\WINDOWS\TEMP\ccTXKCrY.s 			page 3


  88:Src/usb_host.c ****   /* USER CODE BEGIN USB_HOST_Init_PostTreatment */
  89:Src/usb_host.c ****   
  90:Src/usb_host.c ****   /* USER CODE END USB_HOST_Init_PostTreatment */
  91:Src/usb_host.c **** }
  92:Src/usb_host.c **** 
  93:Src/usb_host.c **** /*
  94:Src/usb_host.c ****  * user callback definition
  95:Src/usb_host.c ****  */
  96:Src/usb_host.c **** static void USBH_UserProcess  (USBH_HandleTypeDef *phost, uint8_t id)
  97:Src/usb_host.c **** {
  29              		.loc 1 97 0
  30              		.cfi_startproc
  31              		@ args = 0, pretend = 0, frame = 0
  32              		@ frame_needed = 0, uses_anonymous_args = 0
  33              		@ link register save eliminated.
  34              	.LVL0:
  98:Src/usb_host.c ****   /* USER CODE BEGIN CALL_BACK_1 */
  99:Src/usb_host.c ****   switch(id)
  35              		.loc 1 99 0
  36 0000 0429     		cmp	r1, #4
  37 0002 0CD0     		beq	.L3
  38 0004 0529     		cmp	r1, #5
  39 0006 02D0     		beq	.L4
  40 0008 0229     		cmp	r1, #2
  41 000a 0BD1     		bne	.L1
  42 000c 03E0     		b	.L5
  43              	.L4:
 100:Src/usb_host.c ****   {
 101:Src/usb_host.c ****   case HOST_USER_SELECT_CONFIGURATION:
 102:Src/usb_host.c ****   break;
 103:Src/usb_host.c **** 
 104:Src/usb_host.c ****   case HOST_USER_DISCONNECTION:
 105:Src/usb_host.c ****   Appli_state = APPLICATION_DISCONNECT;
  44              		.loc 1 105 0
  45 000e 0322     		movs	r2, #3
  46 0010 054B     		ldr	r3, .L6
  47 0012 1A70     		strb	r2, [r3]
 106:Src/usb_host.c ****   break;
  48              		.loc 1 106 0
  49 0014 7047     		bx	lr
  50              	.L5:
 107:Src/usb_host.c **** 
 108:Src/usb_host.c ****   case HOST_USER_CLASS_ACTIVE:
 109:Src/usb_host.c ****   Appli_state = APPLICATION_READY;
  51              		.loc 1 109 0
  52 0016 0222     		movs	r2, #2
  53 0018 034B     		ldr	r3, .L6
  54 001a 1A70     		strb	r2, [r3]
 110:Src/usb_host.c ****   break;
  55              		.loc 1 110 0
  56 001c 7047     		bx	lr
  57              	.L3:
 111:Src/usb_host.c **** 
 112:Src/usb_host.c ****   case HOST_USER_CONNECTION:
 113:Src/usb_host.c ****   Appli_state = APPLICATION_START;
  58              		.loc 1 113 0
  59 001e 0122     		movs	r2, #1
ARM GAS  C:\WINDOWS\TEMP\ccTXKCrY.s 			page 4


  60 0020 014B     		ldr	r3, .L6
  61 0022 1A70     		strb	r2, [r3]
  62              	.L1:
  63 0024 7047     		bx	lr
  64              	.L7:
  65 0026 00BF     		.align	2
  66              	.L6:
  67 0028 00000000 		.word	.LANCHOR0
  68              		.cfi_endproc
  69              	.LFE137:
  71              		.section	.text.MX_USB_HOST_Init,"ax",%progbits
  72              		.align	2
  73              		.global	MX_USB_HOST_Init
  74              		.thumb
  75              		.thumb_func
  77              	MX_USB_HOST_Init:
  78              	.LFB136:
  70:Src/usb_host.c ****   /* USER CODE BEGIN USB_HOST_Init_PreTreatment */
  79              		.loc 1 70 0
  80              		.cfi_startproc
  81              		@ args = 0, pretend = 0, frame = 0
  82              		@ frame_needed = 0, uses_anonymous_args = 0
  83 0000 08B5     		push	{r3, lr}
  84              	.LCFI0:
  85              		.cfi_def_cfa_offset 8
  86              		.cfi_offset 3, -8
  87              		.cfi_offset 14, -4
  76:Src/usb_host.c ****   {
  88              		.loc 1 76 0
  89 0002 0022     		movs	r2, #0
  90 0004 0A49     		ldr	r1, .L13
  91 0006 0B48     		ldr	r0, .L13+4
  92 0008 FFF7FEFF 		bl	USBH_Init
  93              	.LVL1:
  94 000c 08B1     		cbz	r0, .L9
  78:Src/usb_host.c ****   }
  95              		.loc 1 78 0
  96 000e FFF7FEFF 		bl	Error_Handler
  97              	.LVL2:
  98              	.L9:
  80:Src/usb_host.c ****   {
  99              		.loc 1 80 0
 100 0012 0949     		ldr	r1, .L13+8
 101 0014 0748     		ldr	r0, .L13+4
 102 0016 FFF7FEFF 		bl	USBH_RegisterClass
 103              	.LVL3:
 104 001a 08B1     		cbz	r0, .L10
  82:Src/usb_host.c ****   }
 105              		.loc 1 82 0
 106 001c FFF7FEFF 		bl	Error_Handler
 107              	.LVL4:
 108              	.L10:
  84:Src/usb_host.c ****   {
 109              		.loc 1 84 0
 110 0020 0448     		ldr	r0, .L13+4
 111 0022 FFF7FEFF 		bl	USBH_Start
 112              	.LVL5:
ARM GAS  C:\WINDOWS\TEMP\ccTXKCrY.s 			page 5


 113 0026 08B1     		cbz	r0, .L8
  86:Src/usb_host.c ****   }
 114              		.loc 1 86 0
 115 0028 FFF7FEFF 		bl	Error_Handler
 116              	.LVL6:
 117              	.L8:
 118 002c 08BD     		pop	{r3, pc}
 119              	.L14:
 120 002e 00BF     		.align	2
 121              	.L13:
 122 0030 00000000 		.word	USBH_UserProcess
 123 0034 00000000 		.word	hUsbHostHS
 124 0038 00000000 		.word	CDC_Class
 125              		.cfi_endproc
 126              	.LFE136:
 128              		.global	Appli_state
 129              		.comm	hUsbHostHS,984,4
 130              		.section	.bss.Appli_state,"aw",%nobits
 131              		.set	.LANCHOR0,. + 0
 134              	Appli_state:
 135 0000 00       		.space	1
 136              		.text
 137              	.Letext0:
 138              		.file 2 "d:\\tool_chain\\gcc-arm-none-eabi\\5.4 2016q3\\arm-none-eabi\\include\\machine\\_default_
 139              		.file 3 "d:\\tool_chain\\gcc-arm-none-eabi\\5.4 2016q3\\arm-none-eabi\\include\\sys\\_stdint.h"
 140              		.file 4 "Inc/usb_host.h"
 141              		.file 5 "Middlewares/Third_Party/FreeRTOS/Source/include/task.h"
 142              		.file 6 "Middlewares/Third_Party/FreeRTOS/Source/include/queue.h"
 143              		.file 7 "Middlewares/Third_Party/FreeRTOS/Source/CMSIS_RTOS/cmsis_os.h"
 144              		.file 8 "Middlewares/ST/STM32_USB_Host_Library/Core/Inc/usbh_def.h"
 145              		.file 9 "Drivers/CMSIS/Include/core_cm4.h"
 146              		.file 10 "Middlewares/ST/STM32_USB_Host_Library/Class/CDC/Inc/usbh_cdc.h"
 147              		.file 11 "Middlewares/ST/STM32_USB_Host_Library/Core/Inc/usbh_core.h"
 148              		.file 12 "Inc/main.h"
ARM GAS  C:\WINDOWS\TEMP\ccTXKCrY.s 			page 6


DEFINED SYMBOLS
                            *ABS*:00000000 usb_host.c
C:\WINDOWS\TEMP\ccTXKCrY.s:22     .text.USBH_UserProcess:00000000 $t
C:\WINDOWS\TEMP\ccTXKCrY.s:26     .text.USBH_UserProcess:00000000 USBH_UserProcess
C:\WINDOWS\TEMP\ccTXKCrY.s:67     .text.USBH_UserProcess:00000028 $d
C:\WINDOWS\TEMP\ccTXKCrY.s:72     .text.MX_USB_HOST_Init:00000000 $t
C:\WINDOWS\TEMP\ccTXKCrY.s:77     .text.MX_USB_HOST_Init:00000000 MX_USB_HOST_Init
C:\WINDOWS\TEMP\ccTXKCrY.s:122    .text.MX_USB_HOST_Init:00000030 $d
                            *COM*:000003d8 hUsbHostHS
C:\WINDOWS\TEMP\ccTXKCrY.s:134    .bss.Appli_state:00000000 Appli_state
C:\WINDOWS\TEMP\ccTXKCrY.s:135    .bss.Appli_state:00000000 $d
                     .debug_frame:00000010 $d

UNDEFINED SYMBOLS
USBH_Init
Error_Handler
USBH_RegisterClass
USBH_Start
CDC_Class
